target datalayout = "e-m:e-p270:32:32-p271:32:32-p272:64:64-i64:64-i128:128-f80:128-n8:16:32:64-S128"
target triple = "x86_64-pc-linux-gnu"

%struct.Aig_CMan_t_ = type { i32, i32, i32, i32, i32, i32, ptr, i32, i32, [0 x i8] }

; Function Attrs: nounwind uwtable
define i32 @Aig_CManRestoreNum(ptr noundef %0) #0 {
  %2 = alloca ptr, align 8
  %3 = alloca i32, align 4
  %4 = alloca i32, align 4
  %5 = alloca i32, align 4
  store ptr %0, ptr %2, align 8, !tbaa !53
  call void @llvm.lifetime.start.p0(i64 4, ptr %3) #9
  call void @llvm.lifetime.start.p0(i64 4, ptr %4) #9
  call void @llvm.lifetime.start.p0(i64 4, ptr %5) #9
  store i32 0, ptr %5, align 4, !tbaa !10
  store i32 0, ptr %4, align 4, !tbaa !10
  br label %6

6:                                                ; preds = %23, %1
  %7 = load ptr, ptr %2, align 8, !tbaa !53
  %8 = getelementptr inbounds nuw %struct.Aig_CMan_t_, ptr %7, i32 0, i32 6
  %9 = load ptr, ptr %8, align 8, !tbaa !62
  %10 = getelementptr inbounds nuw i8, ptr %9, i32 1
  store ptr %10, ptr %8, align 8, !tbaa !62
  %11 = load i8, ptr %9, align 1, !tbaa !63
  %12 = zext i8 %11 to i32
  store i32 %12, ptr %3, align 4, !tbaa !10
  %13 = and i32 %12, 128
  %14 = icmp ne i32 %13, 0
  br i1 %14, label %15, label %26

15:                                               ; preds = %6
  %16 = load i32, ptr %3, align 4, !tbaa !10
  %17 = and i32 %16, 127
  %18 = load i32, ptr %4, align 4, !tbaa !10
  %19 = mul nsw i32 7, %18
  %20 = shl i32 %17, %19
  %21 = load i32, ptr %5, align 4, !tbaa !10
  %22 = or i32 %21, %20
  store i32 %22, ptr %5, align 4, !tbaa !10
  br label %23

23:                                               ; preds = %15
  %24 = load i32, ptr %4, align 4, !tbaa !10
  %25 = add nsw i32 %24, 1
  store i32 %25, ptr %4, align 4, !tbaa !10
  br label %6, !llvm.loop !65

26:                                               ; preds = %6
  %27 = load i32, ptr %5, align 4, !tbaa !10
  %28 = load i32, ptr %3, align 4, !tbaa !10
  %29 = load i32, ptr %4, align 4, !tbaa !10
  %30 = mul nsw i32 7, %29
  %31 = shl i32 %28, %30
  %32 = or i32 %27, %31
  call void @llvm.lifetime.end.p0(i64 4, ptr %5) #9
  call void @llvm.lifetime.end.p0(i64 4, ptr %4) #9
  call void @llvm.lifetime.end.p0(i64 4, ptr %3) #9
  ret i32 %32
}

; Function Attrs: nounwind uwtable
define i32 @Aig_CManGetPo(ptr noundef %0) #0 {
  %2 = alloca i32, align 4
  %3 = alloca ptr, align 8
  %4 = alloca i32, align 4
  %5 = alloca i32, align 4
  store ptr %0, ptr %3, align 8, !tbaa !53
  call void @llvm.lifetime.start.p0(i64 4, ptr %4) #9
  %6 = load ptr, ptr %3, align 8, !tbaa !53
  %7 = call i32 @Aig_CManRestoreNum(ptr noundef %6)
  store i32 %7, ptr %4, align 4, !tbaa !10
  %8 = load ptr, ptr %3, align 8, !tbaa !53
  %9 = getelementptr inbounds nuw %struct.Aig_CMan_t_, ptr %8, i32 0, i32 7
  %10 = load i32, ptr %9, align 8, !tbaa !61
  %11 = icmp eq i32 %10, -1
  br i1 %11, label %12, label %18

12:                                               ; preds = %1
  %13 = load ptr, ptr %3, align 8, !tbaa !53
  %14 = getelementptr inbounds nuw %struct.Aig_CMan_t_, ptr %13, i32 0, i32 3
  %15 = load i32, ptr %14, align 4, !tbaa !60
  %16 = load ptr, ptr %3, align 8, !tbaa !53
  %17 = getelementptr inbounds nuw %struct.Aig_CMan_t_, ptr %16, i32 0, i32 7
  store i32 %15, ptr %17, align 8, !tbaa !61
  br label %18

18:                                               ; preds = %12, %1
  %19 = load ptr, ptr %3, align 8, !tbaa !53
  %20 = getelementptr inbounds nuw %struct.Aig_CMan_t_, ptr %19, i32 0, i32 3
  %21 = load i32, ptr %20, align 4, !tbaa !60
  %22 = add nsw i32 %21, 1
  store i32 %22, ptr %20, align 4, !tbaa !60
  %23 = load i32, ptr %4, align 4, !tbaa !10
  %24 = and i32 %23, 1
  %25 = icmp ne i32 %24, 0
  br i1 %25, label %26, label %35

26:                                               ; preds = %18
  %27 = load ptr, ptr %3, align 8, !tbaa !53
  %28 = getelementptr inbounds nuw %struct.Aig_CMan_t_, ptr %27, i32 0, i32 7
  %29 = load i32, ptr %28, align 8, !tbaa !61
  %30 = load i32, ptr %4, align 4, !tbaa !10
  %31 = ashr i32 %30, 1
  %32 = add nsw i32 %29, %31
  %33 = load ptr, ptr %3, align 8, !tbaa !53
  %34 = getelementptr inbounds nuw %struct.Aig_CMan_t_, ptr %33, i32 0, i32 7
  store i32 %32, ptr %34, align 8, !tbaa !61
  store i32 %32, ptr %2, align 4
  store i32 1, ptr %5, align 4
  br label %44

35:                                               ; preds = %18
  %36 = load ptr, ptr %3, align 8, !tbaa !53
  %37 = getelementptr inbounds nuw %struct.Aig_CMan_t_, ptr %36, i32 0, i32 7
  %38 = load i32, ptr %37, align 8, !tbaa !61
  %39 = load i32, ptr %4, align 4, !tbaa !10
  %40 = ashr i32 %39, 1
  %41 = sub nsw i32 %38, %40
  %42 = load ptr, ptr %3, align 8, !tbaa !53
  %43 = getelementptr inbounds nuw %struct.Aig_CMan_t_, ptr %42, i32 0, i32 7
  store i32 %41, ptr %43, align 8, !tbaa !61
  store i32 %41, ptr %2, align 4
  store i32 1, ptr %5, align 4
  br label %44

44:                                               ; preds = %35, %26
  call void @llvm.lifetime.end.p0(i64 4, ptr %4) #9
  %45 = load i32, ptr %2, align 4
  ret i32 %45
}