; Function Attrs: nofree norecurse nosync nounwind memory(read, argmem: readwrite, inaccessiblemem: none) uwtable
define i32 @Aig_CManGetPo(ptr noundef captures(none) %0) local_unnamed_addr #14 {
  %2 = getelementptr inbounds nuw i8, ptr %0, i64 24
  %.promoted.i = load ptr, ptr %2, align 8, !tbaa !54
  %3 = getelementptr inbounds nuw i8, ptr %.promoted.i, i64 1
  store ptr %3, ptr %2, align 8, !tbaa !54
  %4 = load i8, ptr %.promoted.i, align 1, !tbaa !25
  %5 = zext i8 %4 to i32
  %.not8.i = icmp sgt i8 %4, -1
  br i1 %.not8.i, label %Aig_CManRestoreNum.exit, label %.lr.ph.i

.lr.ph.i:                                         ; preds = %1, %.lr.ph.i
  %6 = phi i32 [ %15, %.lr.ph.i ], [ %5, %1 ]
  %7 = phi ptr [ %13, %.lr.ph.i ], [ %3, %1 ]
  %.010.i = phi i32 [ %11, %.lr.ph.i ], [ 0, %1 ]
  %.079.i = phi i32 [ %12, %.lr.ph.i ], [ 0, %1 ]
  %8 = and i32 %6, 127
  %9 = mul nuw nsw i32 %.079.i, 7
  %10 = shl i32 %8, %9
  %11 = or i32 %10, %.010.i
  %12 = add nuw nsw i32 %.079.i, 1
  %13 = getelementptr inbounds nuw i8, ptr %7, i64 1
  store ptr %13, ptr %2, align 8, !tbaa !54
  %14 = load i8, ptr %7, align 1, !tbaa !25
  %15 = zext i8 %14 to i32
  %.not.i = icmp sgt i8 %14, -1
  br i1 %.not.i, label %._crit_edge.loopexit.i, label %.lr.ph.i, !llvm.loop !56

._crit_edge.loopexit.i:                           ; preds = %.lr.ph.i
  %16 = mul nuw nsw i32 %12, 7
  br label %Aig_CManRestoreNum.exit

Aig_CManRestoreNum.exit:                          ; preds = %1, %._crit_edge.loopexit.i
  %.07.lcssa.i = phi i32 [ 0, %1 ], [ %16, %._crit_edge.loopexit.i ]
  %.0.lcssa.i = phi i32 [ 0, %1 ], [ %11, %._crit_edge.loopexit.i ]
  %.lcssa.i = phi i32 [ %5, %1 ], [ %15, %._crit_edge.loopexit.i ]
  %17 = shl i32 %.lcssa.i, %.07.lcssa.i
  %18 = or i32 %17, %.0.lcssa.i
  %19 = getelementptr inbounds nuw i8, ptr %0, i64 32
  %20 = load i32, ptr %19, align 8, !tbaa !53
  %21 = icmp eq i32 %20, -1
  %22 = getelementptr inbounds nuw i8, ptr %0, i64 12
  %23 = load i32, ptr %22, align 4, !tbaa !52
  %. = select i1 %21, i32 %23, i32 %20
  %24 = getelementptr inbounds nuw i8, ptr %0, i64 12
  %25 = add nsw i32 %23, 1
  store i32 %25, ptr %24, align 4, !tbaa !52
  %26 = and i32 %18, 1
  %.not = icmp eq i32 %26, 0
  %27 = ashr exact i32 %18, 1
  %28 = ashr i32 %18, 1
  %29 = sub nsw i32 0, %27
  %storemerge.p = select i1 %.not, i32 %29, i32 %28
  %storemerge = add i32 %., %storemerge.p
  store i32 %storemerge, ptr %19, align 8, !tbaa !53
  ret i32 %storemerge
}